; Function Attrs: mustprogress uwtable
define dso_local noundef nonnull align 8 dereferenceable(120) ptr @_ZN4Luau15SubtypingResult10withErrorsERSt6vectorINS_9TypeErrorESaIS2_EE(ptr noundef nonnull returned align 8 dereferenceable(120) %0, ptr noundef nonnull readonly align 8 captures(none) dereferenceable(24) %1) local_unnamed_addr #4 align 2 {
  %3 = load ptr, ptr %1, align 8, !tbaa !44
  %4 = getelementptr inbounds nuw i8, ptr %1, i64 8
  %5 = load ptr, ptr %4, align 8, !tbaa !44
  %.not8 = icmp eq ptr %3, %5
  br i1 %.not8, label %._crit_edge, label %.lr.ph

.lr.ph:                                           ; preds = %2
  %6 = getelementptr inbounds nuw i8, ptr %0, i64 8
  br label %7

._crit_edge:                                      ; preds = %7, %2
  ret ptr %0

7:                                                ; preds = %.lr.ph, %7
  %.sroa.05.09 = phi ptr [ %3, %.lr.ph ], [ %9, %7 ]
  %8 = tail call noundef nonnull align 8 dereferenceable(160) ptr @_ZNSt6vectorIN4Luau9TypeErrorESaIS1_EE12emplace_backIJRS1_EEES5_DpOT_(ptr noundef nonnull align 8 dereferenceable(24) %6, ptr noundef nonnull align 8 dereferenceable(160) %.sroa.05.09)
  %9 = getelementptr inbounds nuw i8, ptr %.sroa.05.09, i64 160
  %.not = icmp eq ptr %9, %5
  br i1 %.not, label %._crit_edge, label %7
}